target datalayout = "e-m:e-p270:32:32-p271:32:32-p272:64:64-i64:64-i128:128-f80:128-n8:16:32:64-S128"
target triple = "x86_64-unknown-linux-gnu"

%"class.facebook::hermes::tracing::SynthTrace::TraceValue" = type { i32, %union.anon }
%union.anon = type { double }
%"class.llvh::StringRef" = type { ptr, i64 }
%"class.std::__cxx11::basic_string" = type { %"struct.std::__cxx11::basic_string<char>::_Alloc_hider", i64, %union.anon.13 }
%"struct.std::__cxx11::basic_string<char>::_Alloc_hider" = type { ptr }
%union.anon.13 = type { i64, [8 x i8] }
%"struct.facebook::hermes::tracing::SynthTrace::Record" = type { ptr, %"class.std::chrono::duration" }
%"class.std::chrono::duration" = type { i64 }
%"struct.facebook::hermes::tracing::SynthTrace::ArrayReadOrWriteRecord" = type { %"struct.facebook::hermes::tracing::SynthTrace::Record", i64, i64, %"class.facebook::hermes::tracing::SynthTrace::TraceValue" }

@.str.53 = private unnamed_addr constant [6 x i8] c"objID\00", align 1
@.str.61 = private unnamed_addr constant [6 x i8] c"value\00", align 1
@.str.67 = private unnamed_addr constant [6 x i8] c"index\00", align 1

; Function Attrs: mustprogress uwtable
define linkonce_odr hidden void @_ZN6hermes11JSONEmitter12emitKeyValueINSt7__cxx1112basic_stringIcSt11char_traitsIcESaIcEEEEEvN4llvh9StringRefERKT_(ptr noundef nonnull align 8 dereferenceable(72) %this, ptr %key.coerce0, i64 %key.coerce1, ptr noundef nonnull align 8 dereferenceable(32) %val) #1 comdat align 2 {
entry:
  %this.addr.i = alloca ptr, align 8
  %Str.addr.i = alloca ptr, align 8
  %key = alloca %"class.llvh::StringRef", align 8
  %this.addr = alloca ptr, align 8
  %val.addr = alloca ptr, align 8
  %agg.tmp = alloca %"class.llvh::StringRef", align 8
  %agg.tmp2 = alloca %"class.llvh::StringRef", align 8
  %0 = getelementptr inbounds { ptr, i64 }, ptr %key, i32 0, i32 0
  store ptr %key.coerce0, ptr %0, align 8
  %1 = getelementptr inbounds { ptr, i64 }, ptr %key, i32 0, i32 1
  store i64 %key.coerce1, ptr %1, align 8
  store ptr %this, ptr %this.addr, align 8
  store ptr %val, ptr %val.addr, align 8
  %this1 = load ptr, ptr %this.addr, align 8
  call void @llvm.memcpy.p0.p0.i64(ptr align 8 %agg.tmp, ptr align 8 %key, i64 16, i1 false)
  %2 = getelementptr inbounds { ptr, i64 }, ptr %agg.tmp, i32 0, i32 0
  %3 = load ptr, ptr %2, align 8
  %4 = getelementptr inbounds { ptr, i64 }, ptr %agg.tmp, i32 0, i32 1
  %5 = load i64, ptr %4, align 8
  call void @_ZN6hermes11JSONEmitter7emitKeyEN4llvh9StringRefE(ptr noundef nonnull align 8 dereferenceable(72) %this1, ptr %3, i64 %5)
  %6 = load ptr, ptr %val.addr, align 8
  store ptr %agg.tmp2, ptr %this.addr.i, align 8
  store ptr %6, ptr %Str.addr.i, align 8
  %this1.i = load ptr, ptr %this.addr.i, align 8
  %7 = load ptr, ptr %Str.addr.i, align 8
  %call.i = call noundef ptr @_ZNKSt7__cxx1112basic_stringIcSt11char_traitsIcESaIcEE4dataEv(ptr noundef nonnull align 8 dereferenceable(32) %7) #13
  store ptr %call.i, ptr %this1.i, align 8
  %Length.i = getelementptr inbounds %"class.llvh::StringRef", ptr %this1.i, i32 0, i32 1
  %8 = load ptr, ptr %Str.addr.i, align 8
  %call2.i = call noundef i64 @_ZNKSt7__cxx1112basic_stringIcSt11char_traitsIcESaIcEE6lengthEv(ptr noundef nonnull align 8 dereferenceable(32) %8) #13
  store i64 %call2.i, ptr %Length.i, align 8
  %9 = getelementptr inbounds { ptr, i64 }, ptr %agg.tmp2, i32 0, i32 0
  %10 = load ptr, ptr %9, align 8
  %11 = getelementptr inbounds { ptr, i64 }, ptr %agg.tmp2, i32 0, i32 1
  %12 = load i64, ptr %11, align 8
  call void @_ZN6hermes11JSONEmitter9emitValueEN4llvh9StringRefE(ptr noundef nonnull align 8 dereferenceable(72) %this1, ptr %10, i64 %12)
  ret void
}

; Function Attrs: mustprogress uwtable
define linkonce_odr hidden void @_ZN6hermes11JSONEmitter12emitKeyValueImEEvN4llvh9StringRefERKT_(ptr noundef nonnull align 8 dereferenceable(72) %this, ptr %key.coerce0, i64 %key.coerce1, ptr noundef nonnull align 8 dereferenceable(8) %val) #1 comdat align 2 {
entry:
  %key = alloca %"class.llvh::StringRef", align 8
  %this.addr = alloca ptr, align 8
  %val.addr = alloca ptr, align 8
  %agg.tmp = alloca %"class.llvh::StringRef", align 8
  %0 = getelementptr inbounds { ptr, i64 }, ptr %key, i32 0, i32 0
  store ptr %key.coerce0, ptr %0, align 8
  %1 = getelementptr inbounds { ptr, i64 }, ptr %key, i32 0, i32 1
  store i64 %key.coerce1, ptr %1, align 8
  store ptr %this, ptr %this.addr, align 8
  store ptr %val, ptr %val.addr, align 8
  %this1 = load ptr, ptr %this.addr, align 8
  call void @llvm.memcpy.p0.p0.i64(ptr align 8 %agg.tmp, ptr align 8 %key, i64 16, i1 false)
  %2 = getelementptr inbounds { ptr, i64 }, ptr %agg.tmp, i32 0, i32 0
  %3 = load ptr, ptr %2, align 8
  %4 = getelementptr inbounds { ptr, i64 }, ptr %agg.tmp, i32 0, i32 1
  %5 = load i64, ptr %4, align 8
  call void @_ZN6hermes11JSONEmitter7emitKeyEN4llvh9StringRefE(ptr noundef nonnull align 8 dereferenceable(72) %this1, ptr %3, i64 %5)
  %6 = load ptr, ptr %val.addr, align 8
  %7 = load i64, ptr %6, align 8
  call void @_ZN6hermes11JSONEmitter9emitValueEm(ptr noundef nonnull align 8 dereferenceable(72) %this1, i64 noundef %7)
  ret void
}

; Function Attrs: mustprogress uwtable
define hidden void @_ZNK8facebook6hermes7tracing10SynthTrace22ArrayReadOrWriteRecord14toJSONInternalERN6hermes11JSONEmitterE(ptr noundef nonnull align 8 dereferenceable(48) %this, ptr noundef nonnull align 8 dereferenceable(72) %json) unnamed_addr #1 align 2 personality ptr @__gxx_personality_v0 {
entry:
  %this.addr.i16 = alloca ptr, align 8
  %Str.addr.i17 = alloca ptr, align 8
  %this.addr.i6 = alloca ptr, align 8
  %Str.addr.i7 = alloca ptr, align 8
  %this.addr.i = alloca ptr, align 8
  %Str.addr.i = alloca ptr, align 8
  %this.addr = alloca ptr, align 8
  %json.addr = alloca ptr, align 8
  %agg.tmp = alloca %"class.llvh::StringRef", align 8
  %agg.tmp2 = alloca %"class.llvh::StringRef", align 8
  %agg.tmp3 = alloca %"class.llvh::StringRef", align 8
  %ref.tmp = alloca %"class.std::__cxx11::basic_string", align 8
  %agg.tmp4 = alloca %"class.facebook::hermes::tracing::SynthTrace::TraceValue", align 8
  %exn.slot = alloca ptr, align 8
  %ehselector.slot = alloca i32, align 4
  store ptr %this, ptr %this.addr, align 8
  store ptr %json, ptr %json.addr, align 8
  %this1 = load ptr, ptr %this.addr, align 8
  %0 = load ptr, ptr %json.addr, align 8
  call void @_ZNK8facebook6hermes7tracing10SynthTrace6Record14toJSONInternalERN6hermes11JSONEmitterE(ptr noundef nonnull align 8 dereferenceable(16) %this1, ptr noundef nonnull align 8 dereferenceable(72) %0)
  %1 = load ptr, ptr %json.addr, align 8
  store ptr %agg.tmp, ptr %this.addr.i, align 8
  store ptr @.str.53, ptr %Str.addr.i, align 8
  %this1.i = load ptr, ptr %this.addr.i, align 8
  %2 = load ptr, ptr %Str.addr.i, align 8
  store ptr %2, ptr %this1.i, align 8
  %Length.i = getelementptr inbounds %"class.llvh::StringRef", ptr %this1.i, i32 0, i32 1
  %3 = load ptr, ptr %Str.addr.i, align 8
  %tobool.i = icmp ne ptr %3, null
  br i1 %tobool.i, label %cond.true.i, label %cond.false.i

cond.true.i:                                      ; preds = %entry
  %4 = load ptr, ptr %Str.addr.i, align 8
  %call.i = call i64 @strlen(ptr noundef %4) #4
  br label %_ZN4llvh9StringRefC2EPKc.exit

cond.false.i:                                     ; preds = %entry
  br label %_ZN4llvh9StringRefC2EPKc.exit

_ZN4llvh9StringRefC2EPKc.exit:                    ; preds = %cond.false.i, %cond.true.i
  %cond.i = phi i64 [ %call.i, %cond.true.i ], [ 0, %cond.false.i ]
  store i64 %cond.i, ptr %Length.i, align 8
  %objID_ = getelementptr inbounds %"struct.facebook::hermes::tracing::SynthTrace::ArrayReadOrWriteRecord", ptr %this1, i32 0, i32 1
  %5 = getelementptr inbounds { ptr, i64 }, ptr %agg.tmp, i32 0, i32 0
  %6 = load ptr, ptr %5, align 8
  %7 = getelementptr inbounds { ptr, i64 }, ptr %agg.tmp, i32 0, i32 1
  %8 = load i64, ptr %7, align 8
  call void @_ZN6hermes11JSONEmitter12emitKeyValueImEEvN4llvh9StringRefERKT_(ptr noundef nonnull align 8 dereferenceable(72) %1, ptr %6, i64 %8, ptr noundef nonnull align 8 dereferenceable(8) %objID_)
  %9 = load ptr, ptr %json.addr, align 8
  store ptr %agg.tmp2, ptr %this.addr.i6, align 8
  store ptr @.str.67, ptr %Str.addr.i7, align 8
  %this1.i8 = load ptr, ptr %this.addr.i6, align 8
  %10 = load ptr, ptr %Str.addr.i7, align 8
  store ptr %10, ptr %this1.i8, align 8
  %Length.i9 = getelementptr inbounds %"class.llvh::StringRef", ptr %this1.i8, i32 0, i32 1
  %11 = load ptr, ptr %Str.addr.i7, align 8
  %tobool.i10 = icmp ne ptr %11, null
  br i1 %tobool.i10, label %cond.true.i13, label %cond.false.i11

cond.true.i13:                                    ; preds = %_ZN4llvh9StringRefC2EPKc.exit
  %12 = load ptr, ptr %Str.addr.i7, align 8
  %call.i14 = call i64 @strlen(ptr noundef %12) #4
  br label %_ZN4llvh9StringRefC2EPKc.exit15

cond.false.i11:                                   ; preds = %_ZN4llvh9StringRefC2EPKc.exit
  br label %_ZN4llvh9StringRefC2EPKc.exit15

_ZN4llvh9StringRefC2EPKc.exit15:                  ; preds = %cond.false.i11, %cond.true.i13
  %cond.i12 = phi i64 [ %call.i14, %cond.true.i13 ], [ 0, %cond.false.i11 ]
  store i64 %cond.i12, ptr %Length.i9, align 8
  %index_ = getelementptr inbounds %"struct.facebook::hermes::tracing::SynthTrace::ArrayReadOrWriteRecord", ptr %this1, i32 0, i32 2
  %13 = getelementptr inbounds { ptr, i64 }, ptr %agg.tmp2, i32 0, i32 0
  %14 = load ptr, ptr %13, align 8
  %15 = getelementptr inbounds { ptr, i64 }, ptr %agg.tmp2, i32 0, i32 1
  %16 = load i64, ptr %15, align 8
  call void @_ZN6hermes11JSONEmitter12emitKeyValueImEEvN4llvh9StringRefERKT_(ptr noundef nonnull align 8 dereferenceable(72) %9, ptr %14, i64 %16, ptr noundef nonnull align 8 dereferenceable(8) %index_)
  %17 = load ptr, ptr %json.addr, align 8
  store ptr %agg.tmp3, ptr %this.addr.i16, align 8
  store ptr @.str.61, ptr %Str.addr.i17, align 8
  %this1.i18 = load ptr, ptr %this.addr.i16, align 8
  %18 = load ptr, ptr %Str.addr.i17, align 8
  store ptr %18, ptr %this1.i18, align 8
  %Length.i19 = getelementptr inbounds %"class.llvh::StringRef", ptr %this1.i18, i32 0, i32 1
  %19 = load ptr, ptr %Str.addr.i17, align 8
  %tobool.i20 = icmp ne ptr %19, null
  br i1 %tobool.i20, label %cond.true.i23, label %cond.false.i21

cond.true.i23:                                    ; preds = %_ZN4llvh9StringRefC2EPKc.exit15
  %20 = load ptr, ptr %Str.addr.i17, align 8
  %call.i24 = call i64 @strlen(ptr noundef %20) #4
  br label %_ZN4llvh9StringRefC2EPKc.exit25

cond.false.i21:                                   ; preds = %_ZN4llvh9StringRefC2EPKc.exit15
  br label %_ZN4llvh9StringRefC2EPKc.exit25

_ZN4llvh9StringRefC2EPKc.exit25:                  ; preds = %cond.false.i21, %cond.true.i23
  %cond.i22 = phi i64 [ %call.i24, %cond.true.i23 ], [ 0, %cond.false.i21 ]
  store i64 %cond.i22, ptr %Length.i19, align 8
  %value_ = getelementptr inbounds %"struct.facebook::hermes::tracing::SynthTrace::ArrayReadOrWriteRecord", ptr %this1, i32 0, i32 3
  call void @llvm.memcpy.p0.p0.i64(ptr align 8 %agg.tmp4, ptr align 8 %value_, i64 16, i1 false)
  %21 = getelementptr inbounds { i32, i64 }, ptr %agg.tmp4, i32 0, i32 0
  %22 = load i32, ptr %21, align 8
  %23 = getelementptr inbounds { i32, i64 }, ptr %agg.tmp4, i32 0, i32 1
  %24 = load i64, ptr %23, align 8
  call void @_ZN8facebook6hermes7tracing10SynthTrace6encodeB5cxx11ENS2_10TraceValueE(ptr sret(%"class.std::__cxx11::basic_string") align 8 %ref.tmp, i32 %22, i64 %24)
  %25 = getelementptr inbounds { ptr, i64 }, ptr %agg.tmp3, i32 0, i32 0
  %26 = load ptr, ptr %25, align 8
  %27 = getelementptr inbounds { ptr, i64 }, ptr %agg.tmp3, i32 0, i32 1
  %28 = load i64, ptr %27, align 8
  invoke void @_ZN6hermes11JSONEmitter12emitKeyValueINSt7__cxx1112basic_stringIcSt11char_traitsIcESaIcEEEEEvN4llvh9StringRefERKT_(ptr noundef nonnull align 8 dereferenceable(72) %17, ptr %26, i64 %28, ptr noundef nonnull align 8 dereferenceable(32) %ref.tmp)
          to label %invoke.cont unwind label %lpad

invoke.cont:                                      ; preds = %_ZN4llvh9StringRefC2EPKc.exit25
  call void @_ZNSt7__cxx1112basic_stringIcSt11char_traitsIcESaIcEED1Ev(ptr noundef nonnull align 8 dereferenceable(32) %ref.tmp) #13
  ret void

lpad:                                             ; preds = %_ZN4llvh9StringRefC2EPKc.exit25
  %29 = landingpad { ptr, i32 }
          cleanup
  %30 = extractvalue { ptr, i32 } %29, 0
  store ptr %30, ptr %exn.slot, align 8
  %31 = extractvalue { ptr, i32 } %29, 1
  store i32 %31, ptr %ehselector.slot, align 4
  call void @_ZNSt7__cxx1112basic_stringIcSt11char_traitsIcESaIcEED1Ev(ptr noundef nonnull align 8 dereferenceable(32) %ref.tmp) #13
  br label %eh.resume

eh.resume:                                        ; preds = %lpad
  %exn = load ptr, ptr %exn.slot, align 8
  %sel = load i32, ptr %ehselector.slot, align 4
  %lpad.val = insertvalue { ptr, i32 } poison, ptr %exn, 0
  %lpad.val5 = insertvalue { ptr, i32 } %lpad.val, i32 %sel, 1
  resume { ptr, i32 } %lpad.val5
}